; Function Attrs: mustprogress nounwind uwtable
define internal fastcc void @_ZN4absl12lts_202308028StatusOrISt6vectorIN9grpc_core12_GLOBAL__N_119ServiceConfigChoiceESaIS5_EEED2Ev(ptr nocapture noundef nonnull readonly align 8 dereferenceable(32) %this) unnamed_addr #4 align 2 personality ptr @__gxx_personality_v0 {
entry:
  %this.val.i = load i64, ptr %this, align 8
  %cmp.i.i.i = icmp eq i64 %this.val.i, 0
  br i1 %cmp.i.i.i, label %_ZN4absl12lts_202308026StatusD2Ev.exit.i, label %if.else.i

_ZN4absl12lts_202308026StatusD2Ev.exit.i:         ; preds = %entry
  %0 = getelementptr inbounds i8, ptr %this, i64 8
  %1 = load ptr, ptr %0, align 8
  %_M_finish.i.i = getelementptr inbounds i8, ptr %this, i64 16
  %2 = load ptr, ptr %_M_finish.i.i, align 8
  %cmp.not3.i.i.i.i.i = icmp eq ptr %1, %2
  br i1 %cmp.not3.i.i.i.i.i, label %invoke.cont.i.i, label %for.body.i.i.i.i.i

for.body.i.i.i.i.i:                               ; preds = %_ZN4absl12lts_202308026StatusD2Ev.exit.i, %for.body.i.i.i.i.i
  %__first.addr.04.i.i.i.i.i = phi ptr [ %incdec.ptr.i.i.i.i.i, %for.body.i.i.i.i.i ], [ %1, %_ZN4absl12lts_202308026StatusD2Ev.exit.i ]
  tail call fastcc void @_ZN9grpc_core12_GLOBAL__N_119ServiceConfigChoiceD2Ev(ptr noundef nonnull align 8 dereferenceable(104) %__first.addr.04.i.i.i.i.i) #19
  %incdec.ptr.i.i.i.i.i = getelementptr inbounds i8, ptr %__first.addr.04.i.i.i.i.i, i64 104
  %cmp.not.i.i.i.i.i = icmp eq ptr %incdec.ptr.i.i.i.i.i, %2
  br i1 %cmp.not.i.i.i.i.i, label %invoke.contthread-pre-split.i.i, label %for.body.i.i.i.i.i, !llvm.loop !7

invoke.contthread-pre-split.i.i:                  ; preds = %for.body.i.i.i.i.i
  %this.val.pr.i.i = load ptr, ptr %0, align 8
  br label %invoke.cont.i.i

invoke.cont.i.i:                                  ; preds = %invoke.contthread-pre-split.i.i, %_ZN4absl12lts_202308026StatusD2Ev.exit.i
  %this.val.i.i = phi ptr [ %this.val.pr.i.i, %invoke.contthread-pre-split.i.i ], [ %1, %_ZN4absl12lts_202308026StatusD2Ev.exit.i ]
  %tobool.not.i.i.i.i = icmp eq ptr %this.val.i.i, null
  br i1 %tobool.not.i.i.i.i, label %_ZN4absl12lts_2023080217internal_statusor12StatusOrDataISt6vectorIN9grpc_core12_GLOBAL__N_119ServiceConfigChoiceESaIS6_EEED2Ev.exit, label %if.then.i.i.i.i

if.then.i.i.i.i:                                  ; preds = %invoke.cont.i.i
  tail call void @_ZdlPv(ptr noundef nonnull %this.val.i.i) #22
  br label %_ZN4absl12lts_2023080217internal_statusor12StatusOrDataISt6vectorIN9grpc_core12_GLOBAL__N_119ServiceConfigChoiceESaIS6_EEED2Ev.exit

if.else.i:                                        ; preds = %entry
  %and.i.i.i1.i = and i64 %this.val.i, 1
  %cmp.i.i.i2.i = icmp eq i64 %and.i.i.i1.i, 0
  br i1 %cmp.i.i.i2.i, label %_ZN4absl12lts_2023080217internal_statusor12StatusOrDataISt6vectorIN9grpc_core12_GLOBAL__N_119ServiceConfigChoiceESaIS6_EEED2Ev.exit, label %if.then.i.i3.i

if.then.i.i3.i:                                   ; preds = %if.else.i
  invoke void @_ZN4absl12lts_202308026Status15UnrefNonInlinedEm(i64 noundef %this.val.i)
          to label %_ZN4absl12lts_2023080217internal_statusor12StatusOrDataISt6vectorIN9grpc_core12_GLOBAL__N_119ServiceConfigChoiceESaIS6_EEED2Ev.exit unwind label %terminate.lpad.i4.i

terminate.lpad.i4.i:                              ; preds = %if.then.i.i3.i
  %3 = landingpad { ptr, i32 }
          catch ptr null
  %4 = extractvalue { ptr, i32 } %3, 0
  tail call void @__clang_call_terminate(ptr %4) #20
  unreachable

_ZN4absl12lts_2023080217internal_statusor12StatusOrDataISt6vectorIN9grpc_core12_GLOBAL__N_119ServiceConfigChoiceESaIS6_EEED2Ev.exit: ; preds = %invoke.cont.i.i, %if.then.i.i.i.i, %if.else.i, %if.then.i.i3.i
  ret void
}